; Function Attrs: null_pointer_is_valid sspstrong uwtable
define internal fastcc zeroext i1 @is_esl_header(ptr noundef %0, i32 noundef range(i32 0, -16) %1) unnamed_addr #0 {
  %3 = tail call zeroext i8 @tvb_get_uint8(ptr noundef %0, i32 noundef %1)
  %4 = icmp eq i8 %3, 1
  br i1 %4, label %5, label %28

5:                                                ; preds = %2
  %6 = add nuw i32 %1, 1
  %7 = tail call zeroext i8 @tvb_get_uint8(ptr noundef %0, i32 noundef %6)
  %8 = icmp eq i8 %7, 1
  br i1 %8, label %9, label %28

9:                                                ; preds = %5
  %10 = add nuw i32 %1, 2
  %11 = tail call zeroext i8 @tvb_get_uint8(ptr noundef %0, i32 noundef %10)
  %12 = icmp eq i8 %11, 5
  br i1 %12, label %13, label %28

13:                                               ; preds = %9
  %14 = add nuw i32 %1, 3
  %15 = tail call zeroext i8 @tvb_get_uint8(ptr noundef %0, i32 noundef %14)
  %16 = icmp eq i8 %15, 16
  br i1 %16, label %20, label %17

17:                                               ; preds = %13
  %18 = tail call zeroext i8 @tvb_get_uint8(ptr noundef %0, i32 noundef %14)
  %19 = icmp eq i8 %18, 17
  br i1 %19, label %20, label %28

20:                                               ; preds = %17, %13
  %21 = add nuw i32 %1, 4
  %22 = tail call zeroext i8 @tvb_get_uint8(ptr noundef %0, i32 noundef %21)
  %23 = icmp eq i8 %22, 0
  br i1 %23, label %24, label %28

24:                                               ; preds = %20
  %25 = add nuw i32 %1, 5
  %26 = tail call zeroext i8 @tvb_get_uint8(ptr noundef %0, i32 noundef %25)
  %27 = icmp eq i8 %26, 0
  br label %28

28:                                               ; preds = %24, %20, %17, %9, %5, %2
  %29 = phi i1 [ false, %20 ], [ false, %17 ], [ false, %9 ], [ false, %5 ], [ false, %2 ], [ %27, %24 ]
  ret i1 %29
}